target datalayout = "e-m:e-p270:32:32-p271:32:32-p272:64:64-i64:64-i128:128-f80:128-n8:16:32:64-S128"
target triple = "x86_64-pc-linux-gnu"

; Function Attrs: mustprogress nounwind uwtable
define hidden noundef ptr @_ZN2cv2fs4itoaEiPci(i32 noundef %0, ptr noundef %1, i32 noundef %2) #8 {
  %4 = alloca i32, align 4
  %5 = alloca ptr, align 8
  %6 = alloca i32, align 4
  %7 = alloca i32, align 4
  %8 = alloca ptr, align 8
  %9 = alloca i32, align 4
  %10 = alloca i32, align 4
  store i32 %0, ptr %4, align 4, !tbaa !11
  store ptr %1, ptr %5, align 8, !tbaa !3
  store i32 %2, ptr %6, align 4, !tbaa !11
  call void @llvm.lifetime.start.p0(i64 4, ptr %7) #3
  store i32 10, ptr %7, align 4, !tbaa !11
  call void @llvm.lifetime.start.p0(i64 8, ptr %8) #3
  %11 = load ptr, ptr %5, align 8, !tbaa !3
  %12 = getelementptr inbounds i8, ptr %11, i64 23
  store ptr %12, ptr %8, align 8, !tbaa !3
  call void @llvm.lifetime.start.p0(i64 4, ptr %9) #3
  %13 = load i32, ptr %4, align 4, !tbaa !11
  %14 = call i32 @llvm.abs.i32(i32 %13, i1 true)
  store i32 %14, ptr %9, align 4, !tbaa !11
  %15 = load ptr, ptr %8, align 8, !tbaa !3
  store i8 0, ptr %15, align 1, !tbaa !10
  br label %16

16:                                               ; preds = %28, %3
  call void @llvm.lifetime.start.p0(i64 4, ptr %10) #3
  %17 = load i32, ptr %9, align 4, !tbaa !11
  %18 = udiv i32 %17, 10
  store i32 %18, ptr %10, align 4, !tbaa !11
  %19 = load i32, ptr %9, align 4, !tbaa !11
  %20 = load i32, ptr %10, align 4, !tbaa !11
  %21 = mul i32 %20, 10
  %22 = sub i32 %19, %21
  %23 = add i32 %22, 48
  %24 = trunc i32 %23 to i8
  %25 = load ptr, ptr %8, align 8, !tbaa !3
  %26 = getelementptr inbounds i8, ptr %25, i32 -1
  store ptr %26, ptr %8, align 8, !tbaa !3
  store i8 %24, ptr %26, align 1, !tbaa !10
  %27 = load i32, ptr %10, align 4, !tbaa !11
  store i32 %27, ptr %9, align 4, !tbaa !11
  call void @llvm.lifetime.end.p0(i64 4, ptr %10) #3
  br label %28

28:                                               ; preds = %16
  %29 = load i32, ptr %9, align 4, !tbaa !11
  %30 = icmp ne i32 %29, 0
  br i1 %30, label %16, label %31, !llvm.loop !17

31:                                               ; preds = %28
  %32 = load i32, ptr %4, align 4, !tbaa !11
  %33 = icmp slt i32 %32, 0
  br i1 %33, label %34, label %37

34:                                               ; preds = %31
  %35 = load ptr, ptr %8, align 8, !tbaa !3
  %36 = getelementptr inbounds i8, ptr %35, i32 -1
  store ptr %36, ptr %8, align 8, !tbaa !3
  store i8 45, ptr %36, align 1, !tbaa !10
  br label %37

37:                                               ; preds = %34, %31
  %38 = load ptr, ptr %8, align 8, !tbaa !3
  call void @llvm.lifetime.end.p0(i64 4, ptr %9) #3
  call void @llvm.lifetime.end.p0(i64 8, ptr %8) #3
  call void @llvm.lifetime.end.p0(i64 4, ptr %7) #3
  ret ptr %38
}