; Function Attrs: mustprogress nofree norecurse nosync nounwind memory(argmem: write) uwtable
define hidden noundef nonnull ptr @_ZN2cv2fs4itoaEiPci(i32 noundef %0, ptr noundef writeonly initializes((23, 24)) %1, i32 noundef %2) local_unnamed_addr #7 {
  %4 = getelementptr inbounds nuw i8, ptr %1, i64 23
  %5 = tail call i32 @llvm.abs.i32(i32 %0, i1 true)
  store i8 0, ptr %4, align 1, !tbaa !5
  br label %6

6:                                                ; preds = %6, %3
  %.011 = phi i32 [ %5, %3 ], [ %7, %6 ]
  %.0 = phi ptr [ %4, %3 ], [ %11, %6 ]
  %7 = udiv i32 %.011, 10
  %.neg = mul i32 %7, 246
  %8 = add i32 %.neg, %.011
  %9 = trunc i32 %8 to i8
  %10 = add i8 %9, 48
  %11 = getelementptr inbounds i8, ptr %.0, i64 -1
  store i8 %10, ptr %11, align 1, !tbaa !5
  %.not = icmp samesign ult i32 %.011, 10
  br i1 %.not, label %12, label %6, !llvm.loop !8

12:                                               ; preds = %6
  %13 = icmp slt i32 %0, 0
  br i1 %13, label %14, label %16

14:                                               ; preds = %12
  %15 = getelementptr inbounds i8, ptr %.0, i64 -2
  store i8 45, ptr %15, align 1, !tbaa !5
  br label %16

16:                                               ; preds = %14, %12
  %.1 = phi ptr [ %15, %14 ], [ %11, %12 ]
  ret ptr %.1
}